; Function Attrs: mustprogress uwtable
define void @_ZN11floatbufferC2EPS_(ptr noundef nonnull align 8 dereferenceable(32) %0, ptr nocapture noundef readonly %1) unnamed_addr #9 align 2 personality ptr @__gxx_personality_v0 {
  %3 = alloca %class.QString, align 8
  %4 = alloca %class.QString, align 8
  %5 = getelementptr inbounds i8, ptr %0, i64 24
  store ptr @_ZN10QArrayData11shared_nullE, ptr %5, align 8
  store ptr null, ptr %0, align 8
  %6 = getelementptr inbounds i8, ptr %0, i64 16
  store i32 -1, ptr %6, align 8
  call void @llvm.lifetime.start.p0(i64 8, ptr nonnull %4)
  invoke void @_ZN7QString15fromUtf8_helperEPKci(ptr dead_on_unwind nonnull writable sret(%class.QString) align 8 %4, ptr noundef nonnull @.str.6, i32 noundef 4)
          to label %.noexc unwind label %43

.noexc:                                           ; preds = %2
  %7 = load ptr, ptr %5, align 8
  %8 = load ptr, ptr %4, align 8
  store ptr %8, ptr %5, align 8
  store ptr %7, ptr %4, align 8
  %9 = load atomic i32, ptr %7 monotonic, align 4
  switch i32 %9, label %_ZN9QtPrivate8RefCount5derefEv.exit.i.i [
    i32 0, label %_ZN9QtPrivate8RefCount5derefEv.exit.thread2.i.i
    i32 -1, label %12
  ]

_ZN9QtPrivate8RefCount5derefEv.exit.i.i:          ; preds = %.noexc
  %10 = atomicrmw sub ptr %7, i32 1 seq_cst, align 4
  %.not.i.i = icmp eq i32 %10, 1
  br i1 %.not.i.i, label %_ZN9QtPrivate8RefCount5derefEv.exit._ZN9QtPrivate8RefCount5derefEv.exit.thread2_crit_edge.i.i, label %12

_ZN9QtPrivate8RefCount5derefEv.exit._ZN9QtPrivate8RefCount5derefEv.exit.thread2_crit_edge.i.i: ; preds = %_ZN9QtPrivate8RefCount5derefEv.exit.i.i
  %.pre.i.i = load ptr, ptr %4, align 8
  br label %_ZN9QtPrivate8RefCount5derefEv.exit.thread2.i.i

_ZN9QtPrivate8RefCount5derefEv.exit.thread2.i.i:  ; preds = %_ZN9QtPrivate8RefCount5derefEv.exit._ZN9QtPrivate8RefCount5derefEv.exit.thread2_crit_edge.i.i, %.noexc
  %11 = phi ptr [ %.pre.i.i, %_ZN9QtPrivate8RefCount5derefEv.exit._ZN9QtPrivate8RefCount5derefEv.exit.thread2_crit_edge.i.i ], [ %7, %.noexc ]
  call void @_ZN10QArrayData10deallocateEPS_mm(ptr noundef %11, i64 noundef 2, i64 noundef 8) #31
  br label %12

12:                                               ; preds = %_ZN9QtPrivate8RefCount5derefEv.exit.thread2.i.i, %_ZN9QtPrivate8RefCount5derefEv.exit.i.i, %.noexc
  call void @llvm.lifetime.end.p0(i64 8, ptr nonnull %4)
  %13 = getelementptr inbounds i8, ptr %1, i64 8
  %14 = load i32, ptr %13, align 8
  %15 = getelementptr inbounds i8, ptr %0, i64 8
  store i32 %14, ptr %15, align 8
  %16 = getelementptr inbounds i8, ptr %1, i64 12
  %17 = load i32, ptr %16, align 4
  %18 = getelementptr inbounds i8, ptr %0, i64 12
  store i32 %17, ptr %18, align 4
  %19 = mul nsw i32 %17, %14
  %20 = sext i32 %19 to i64
  %21 = icmp slt i32 %19, 0
  %22 = shl nsw i64 %20, 2
  %23 = select i1 %21, i64 -1, i64 %22
  %24 = invoke noalias noundef nonnull ptr @_Znam(i64 noundef %23) #34
          to label %25 unwind label %43

25:                                               ; preds = %12
  store ptr %24, ptr %0, align 8
  %26 = icmp sgt i32 %14, 0
  %27 = icmp sgt i32 %17, 0
  %or.cond = and i1 %26, %27
  br i1 %or.cond, label %.preheader, label %._crit_edge23

.preheader:                                       ; preds = %25, %._crit_edge
  %28 = phi i32 [ %45, %._crit_edge ], [ %14, %25 ]
  %29 = phi i32 [ %46, %._crit_edge ], [ %17, %25 ]
  %.022 = phi i32 [ %47, %._crit_edge ], [ 0, %25 ]
  %30 = icmp sgt i32 %29, 0
  br i1 %30, label %.lr.ph, label %._crit_edge

.lr.ph:                                           ; preds = %.preheader, %.lr.ph
  %.01321 = phi i32 [ %40, %.lr.ph ], [ 0, %.preheader ]
  %31 = load ptr, ptr %1, align 8
  %32 = load i32, ptr %15, align 8
  %33 = mul nsw i32 %32, %.01321
  %34 = add nsw i32 %33, %.022
  %35 = sext i32 %34 to i64
  %36 = getelementptr inbounds float, ptr %31, i64 %35
  %37 = load float, ptr %36, align 4
  %38 = load ptr, ptr %0, align 8
  %39 = getelementptr inbounds float, ptr %38, i64 %35
  store float %37, ptr %39, align 4
  %40 = add nuw nsw i32 %.01321, 1
  %41 = load i32, ptr %18, align 4
  %42 = icmp slt i32 %40, %41
  br i1 %42, label %.lr.ph, label %._crit_edge.loopexit, !llvm.loop !10

43:                                               ; preds = %._crit_edge23, %2, %12
  %44 = landingpad { ptr, i32 }
          cleanup
  call void @_ZN7QStringD2Ev(ptr noundef nonnull align 8 dereferenceable(8) %5) #31
  resume { ptr, i32 } %44

._crit_edge.loopexit:                             ; preds = %.lr.ph
  %.pre = load i32, ptr %15, align 8
  br label %._crit_edge

._crit_edge:                                      ; preds = %._crit_edge.loopexit, %.preheader
  %45 = phi i32 [ %.pre, %._crit_edge.loopexit ], [ %28, %.preheader ]
  %46 = phi i32 [ %41, %._crit_edge.loopexit ], [ %29, %.preheader ]
  %47 = add nuw nsw i32 %.022, 1
  %48 = icmp slt i32 %47, %45
  br i1 %48, label %.preheader, label %._crit_edge23, !llvm.loop !11

._crit_edge23:                                    ; preds = %._crit_edge, %25
  store i32 1, ptr %6, align 8
  call void @llvm.lifetime.start.p0(i64 8, ptr nonnull %3)
  invoke void @_ZN7QString15fromUtf8_helperEPKci(ptr dead_on_unwind nonnull writable sret(%class.QString) align 8 %3, ptr noundef nonnull @.str.6, i32 noundef 4)
          to label %.noexc19 unwind label %43

.noexc19:                                         ; preds = %._crit_edge23
  %49 = load ptr, ptr %5, align 8
  %50 = load ptr, ptr %3, align 8
  store ptr %50, ptr %5, align 8
  store ptr %49, ptr %3, align 8
  %51 = load atomic i32, ptr %49 monotonic, align 4
  switch i32 %51, label %_ZN9QtPrivate8RefCount5derefEv.exit.i.i15 [
    i32 0, label %_ZN9QtPrivate8RefCount5derefEv.exit.thread2.i.i14
    i32 -1, label %54
  ]

_ZN9QtPrivate8RefCount5derefEv.exit.i.i15:        ; preds = %.noexc19
  %52 = atomicrmw sub ptr %49, i32 1 seq_cst, align 4
  %.not.i.i16 = icmp eq i32 %52, 1
  br i1 %.not.i.i16, label %_ZN9QtPrivate8RefCount5derefEv.exit._ZN9QtPrivate8RefCount5derefEv.exit.thread2_crit_edge.i.i17, label %54

_ZN9QtPrivate8RefCount5derefEv.exit._ZN9QtPrivate8RefCount5derefEv.exit.thread2_crit_edge.i.i17: ; preds = %_ZN9QtPrivate8RefCount5derefEv.exit.i.i15
  %.pre.i.i18 = load ptr, ptr %3, align 8
  br label %_ZN9QtPrivate8RefCount5derefEv.exit.thread2.i.i14

_ZN9QtPrivate8RefCount5derefEv.exit.thread2.i.i14: ; preds = %_ZN9QtPrivate8RefCount5derefEv.exit._ZN9QtPrivate8RefCount5derefEv.exit.thread2_crit_edge.i.i17, %.noexc19
  %53 = phi ptr [ %.pre.i.i18, %_ZN9QtPrivate8RefCount5derefEv.exit._ZN9QtPrivate8RefCount5derefEv.exit.thread2_crit_edge.i.i17 ], [ %49, %.noexc19 ]
  call void @_ZN10QArrayData10deallocateEPS_mm(ptr noundef %53, i64 noundef 2, i64 noundef 8) #31
  br label %54

54:                                               ; preds = %_ZN9QtPrivate8RefCount5derefEv.exit.thread2.i.i14, %_ZN9QtPrivate8RefCount5derefEv.exit.i.i15, %.noexc19
  call void @llvm.lifetime.end.p0(i64 8, ptr nonnull %3)
  ret void
}